; Function Attrs: nounwind uwtable
define noalias noundef ptr @Abc_NtkCollectObjects(ptr noundef readonly captures(none) %0) local_unnamed_addr #0 {
  %2 = tail call noalias dereferenceable_or_null(16) ptr @malloc(i64 noundef 16) #30
  %3 = getelementptr inbounds nuw i8, ptr %2, i64 4
  store i32 0, ptr %3, align 4
  store i32 100, ptr %2, align 8
  %4 = tail call noalias dereferenceable_or_null(800) ptr @malloc(i64 noundef 800) #30
  %5 = getelementptr inbounds nuw i8, ptr %2, i64 8
  store ptr %4, ptr %5, align 8
  %6 = getelementptr inbounds nuw i8, ptr %0, i64 32
  %7 = load ptr, ptr %6, align 8
  %8 = getelementptr i8, ptr %7, i64 4
  %.val10 = load i32, ptr %8, align 4
  %9 = icmp sgt i32 %.val10, 0
  br i1 %9, label %.lr.ph, label %.critedge

.lr.ph:                                           ; preds = %1, %43
  %10 = phi ptr [ %44, %43 ], [ %7, %1 ]
  %indvars.iv = phi i64 [ %indvars.iv.next, %43 ], [ 0, %1 ]
  %11 = getelementptr i8, ptr %10, i64 8
  %.val9.val = load ptr, ptr %11, align 8
  %12 = getelementptr inbounds nuw ptr, ptr %.val9.val, i64 %indvars.iv
  %13 = load ptr, ptr %12, align 8
  %14 = icmp eq ptr %13, null
  br i1 %14, label %43, label %15

15:                                               ; preds = %.lr.ph
  %16 = load i32, ptr %3, align 4
  %17 = load i32, ptr %2, align 8
  %18 = icmp eq i32 %16, %17
  br i1 %18, label %19, label %.Vec_PtrGrow.exit11_crit_edge.i

.Vec_PtrGrow.exit11_crit_edge.i:                  ; preds = %15
  %.pre.i = load ptr, ptr %5, align 8
  br label %Vec_PtrPush.exit

19:                                               ; preds = %15
  %20 = icmp slt i32 %16, 16
  br i1 %20, label %21, label %28

21:                                               ; preds = %19
  %22 = load ptr, ptr %5, align 8
  %.not9.i.i = icmp eq ptr %22, null
  br i1 %.not9.i.i, label %25, label %23

23:                                               ; preds = %21
  %24 = tail call dereferenceable_or_null(128) ptr @realloc(ptr noundef nonnull %22, i64 noundef 128) #29
  br label %Vec_PtrGrow.exit.i

25:                                               ; preds = %21
  %26 = tail call noalias dereferenceable_or_null(128) ptr @malloc(i64 noundef 128) #30
  br label %Vec_PtrGrow.exit.i

Vec_PtrGrow.exit.i:                               ; preds = %25, %23
  %27 = phi ptr [ %24, %23 ], [ %26, %25 ]
  store ptr %27, ptr %5, align 8
  store i32 16, ptr %2, align 8
  br label %Vec_PtrPush.exit

28:                                               ; preds = %19
  %29 = shl nuw nsw i32 %16, 1
  %30 = load ptr, ptr %5, align 8
  %.not9.i10.i = icmp eq ptr %30, null
  %31 = zext nneg i32 %29 to i64
  %32 = shl nuw nsw i64 %31, 3
  br i1 %.not9.i10.i, label %35, label %33

33:                                               ; preds = %28
  %34 = tail call ptr @realloc(ptr noundef nonnull %30, i64 noundef %32) #29
  br label %37

35:                                               ; preds = %28
  %36 = tail call noalias ptr @malloc(i64 noundef %32) #30
  br label %37

37:                                               ; preds = %35, %33
  %38 = phi ptr [ %34, %33 ], [ %36, %35 ]
  store ptr %38, ptr %5, align 8
  store i32 %29, ptr %2, align 8
  br label %Vec_PtrPush.exit

Vec_PtrPush.exit:                                 ; preds = %.Vec_PtrGrow.exit11_crit_edge.i, %Vec_PtrGrow.exit.i, %37
  %39 = phi ptr [ %.pre.i, %.Vec_PtrGrow.exit11_crit_edge.i ], [ %38, %37 ], [ %27, %Vec_PtrGrow.exit.i ]
  %40 = add nsw i32 %16, 1
  store i32 %40, ptr %3, align 4
  %41 = sext i32 %16 to i64
  %42 = getelementptr inbounds ptr, ptr %39, i64 %41
  store ptr %13, ptr %42, align 8
  %.pre = load ptr, ptr %6, align 8
  br label %43

43:                                               ; preds = %Vec_PtrPush.exit, %.lr.ph
  %44 = phi ptr [ %.pre, %Vec_PtrPush.exit ], [ %10, %.lr.ph ]
  %indvars.iv.next = add nuw nsw i64 %indvars.iv, 1
  %45 = getelementptr i8, ptr %44, i64 4
  %.val = load i32, ptr %45, align 4
  %46 = sext i32 %.val to i64
  %47 = icmp slt i64 %indvars.iv.next, %46
  br i1 %47, label %.lr.ph, label %.critedge, !llvm.loop !74

.critedge:                                        ; preds = %43, %1
  ret ptr %2
}